target datalayout = "e-m:e-p270:32:32-p271:32:32-p272:64:64-i64:64-i128:128-f80:128-n8:16:32:64-S128"
target triple = "x86_64-pc-linux-gnu"

%"struct.std::atomic.0" = type { %"struct.std::__atomic_base.1" }
%"struct.std::__atomic_base.1" = type { i64 }

@_ZN4absl13base_internalL10delay_randE = internal global %"struct.std::atomic.0" zeroinitializer, align 8

; Function Attrs: mustprogress nounwind uwtable
define linkonce_odr dso_local noundef i32 @_ZStanSt12memory_orderSt23__memory_order_modifier(i32 noundef %0, i32 noundef %1) #2 comdat {
  %3 = alloca i32, align 4
  %4 = alloca i32, align 4
  store i32 %0, ptr %3, align 4, !tbaa !32
  store i32 %1, ptr %4, align 4, !tbaa !40
  %5 = load i32, ptr %3, align 4, !tbaa !32
  %6 = load i32, ptr %4, align 4, !tbaa !40
  %7 = and i32 %5, %6
  ret i32 %7
}

; Function Attrs: alwaysinline mustprogress nounwind uwtable
define linkonce_odr dso_local void @_ZNSt13__atomic_baseImE5storeEmSt12memory_order(ptr noundef nonnull align 8 dereferenceable(8) %0, i64 noundef %1, i32 noundef %2) #4 comdat align 2 {
  %4 = alloca ptr, align 8
  %5 = alloca i64, align 8
  %6 = alloca i32, align 4
  %7 = alloca i32, align 4
  %8 = alloca i64, align 8
  store ptr %0, ptr %4, align 8, !tbaa !38
  store i64 %1, ptr %5, align 8, !tbaa !36
  store i32 %2, ptr %6, align 4, !tbaa !32
  %9 = load ptr, ptr %4, align 8
  call void @llvm.lifetime.start.p0(i64 4, ptr %7) #8
  %10 = load i32, ptr %6, align 4, !tbaa !32
  %11 = call noundef i32 @_ZStanSt12memory_orderSt23__memory_order_modifier(i32 noundef %10, i32 noundef 65535)
  store i32 %11, ptr %7, align 4, !tbaa !32
  br label %12

12:                                               ; preds = %3
  br label %13

13:                                               ; preds = %12
  br label %14

14:                                               ; preds = %13
  br label %15

15:                                               ; preds = %14
  br label %16

16:                                               ; preds = %15
  br label %17

17:                                               ; preds = %16
  br label %18

18:                                               ; preds = %17
  br label %19

19:                                               ; preds = %18
  br label %20

20:                                               ; preds = %19
  %21 = getelementptr inbounds nuw %"struct.std::__atomic_base.1", ptr %9, i32 0, i32 0
  %22 = load i32, ptr %6, align 4, !tbaa !32
  %23 = load i64, ptr %5, align 8, !tbaa !36
  store i64 %23, ptr %8, align 8, !tbaa !36
  switch i32 %22, label %24 [
    i32 3, label %26
    i32 5, label %28
  ]

24:                                               ; preds = %20
  %25 = load i64, ptr %8, align 8
  store atomic i64 %25, ptr %21 monotonic, align 8
  br label %30

26:                                               ; preds = %20
  %27 = load i64, ptr %8, align 8
  store atomic i64 %27, ptr %21 release, align 8
  br label %30

28:                                               ; preds = %20
  %29 = load i64, ptr %8, align 8
  store atomic i64 %29, ptr %21 seq_cst, align 8
  br label %30

30:                                               ; preds = %28, %26, %24
  call void @llvm.lifetime.end.p0(i64 4, ptr %7) #8
  ret void
}

; Function Attrs: alwaysinline mustprogress nounwind uwtable
define linkonce_odr dso_local noundef i64 @_ZNKSt13__atomic_baseImE4loadESt12memory_order(ptr noundef nonnull align 8 dereferenceable(8) %0, i32 noundef %1) #4 comdat align 2 {
  %3 = alloca ptr, align 8
  %4 = alloca i32, align 4
  %5 = alloca i32, align 4
  %6 = alloca i64, align 8
  store ptr %0, ptr %3, align 8, !tbaa !38
  store i32 %1, ptr %4, align 4, !tbaa !32
  %7 = load ptr, ptr %3, align 8
  call void @llvm.lifetime.start.p0(i64 4, ptr %5) #8
  %8 = load i32, ptr %4, align 4, !tbaa !32
  %9 = call noundef i32 @_ZStanSt12memory_orderSt23__memory_order_modifier(i32 noundef %8, i32 noundef 65535)
  store i32 %9, ptr %5, align 4, !tbaa !32
  br label %10

10:                                               ; preds = %2
  br label %11

11:                                               ; preds = %10
  br label %12

12:                                               ; preds = %11
  br label %13

13:                                               ; preds = %12
  br label %14

14:                                               ; preds = %13
  br label %15

15:                                               ; preds = %14
  %16 = getelementptr inbounds nuw %"struct.std::__atomic_base.1", ptr %7, i32 0, i32 0
  %17 = load i32, ptr %4, align 4, !tbaa !32
  switch i32 %17, label %18 [
    i32 1, label %20
    i32 2, label %20
    i32 5, label %22
  ]

18:                                               ; preds = %15
  %19 = load atomic i64, ptr %16 monotonic, align 8
  store i64 %19, ptr %6, align 8
  br label %24

20:                                               ; preds = %15, %15
  %21 = load atomic i64, ptr %16 acquire, align 8
  store i64 %21, ptr %6, align 8
  br label %24

22:                                               ; preds = %15
  %23 = load atomic i64, ptr %16 seq_cst, align 8
  store i64 %23, ptr %6, align 8
  br label %24

24:                                               ; preds = %22, %20, %18
  %25 = load i64, ptr %6, align 8, !tbaa !36
  call void @llvm.lifetime.end.p0(i64 4, ptr %5) #8
  ret i64 %25
}

; Function Attrs: mustprogress nounwind uwtable
define dso_local noundef i32 @_ZN4absl13base_internal24SpinLockSuggestedDelayNSEi(i32 noundef %0) #2 {
  %2 = alloca i32, align 4
  %3 = alloca i64, align 8
  %4 = alloca i32, align 4
  %5 = alloca i32, align 4
  store i32 %0, ptr %2, align 4, !tbaa !9
  call void @llvm.lifetime.start.p0(i64 8, ptr %3) #8
  %6 = call noundef i64 @_ZNKSt13__atomic_baseImE4loadESt12memory_order(ptr noundef nonnull align 8 dereferenceable(8) @_ZN4absl13base_internalL10delay_randE, i32 noundef 0) #8
  store i64 %6, ptr %3, align 8, !tbaa !36
  %7 = load i64, ptr %3, align 8, !tbaa !36
  %8 = mul i64 25214903917, %7
  %9 = add i64 %8, 11
  store i64 %9, ptr %3, align 8, !tbaa !36
  %10 = load i64, ptr %3, align 8, !tbaa !36
  call void @_ZNSt13__atomic_baseImE5storeEmSt12memory_order(ptr noundef nonnull align 8 dereferenceable(8) @_ZN4absl13base_internalL10delay_randE, i64 noundef %10, i32 noundef 0) #8
  %11 = load i32, ptr %2, align 4, !tbaa !9
  %12 = icmp slt i32 %11, 0
  br i1 %12, label %16, label %13

13:                                               ; preds = %1
  %14 = load i32, ptr %2, align 4, !tbaa !9
  %15 = icmp sgt i32 %14, 32
  br i1 %15, label %16, label %17

16:                                               ; preds = %13, %1
  store i32 32, ptr %2, align 4, !tbaa !9
  br label %17

17:                                               ; preds = %16, %13
  call void @llvm.lifetime.start.p0(i64 4, ptr %4) #8
  store i32 131072, ptr %4, align 4, !tbaa !9
  call void @llvm.lifetime.start.p0(i64 4, ptr %5) #8
  %18 = load i32, ptr %2, align 4, !tbaa !9
  %19 = sdiv i32 %18, 8
  %20 = shl i32 131072, %19
  store i32 %20, ptr %5, align 4, !tbaa !9
  %21 = load i32, ptr %5, align 4, !tbaa !9
  %22 = load i32, ptr %5, align 4, !tbaa !9
  %23 = sub nsw i32 %22, 1
  %24 = load i64, ptr %3, align 8, !tbaa !36
  %25 = trunc i64 %24 to i32
  %26 = and i32 %23, %25
  %27 = or i32 %21, %26
  call void @llvm.lifetime.end.p0(i64 4, ptr %5) #8
  call void @llvm.lifetime.end.p0(i64 4, ptr %4) #8
  call void @llvm.lifetime.end.p0(i64 8, ptr %3) #8
  ret i32 %27
}