; Function Attrs: mustprogress nofree norecurse nounwind willreturn memory(readwrite, argmem: none, inaccessiblemem: none) uwtable
define dso_local noundef range(i32 131072, 4194304) i32 @_ZN4absl13base_internal24SpinLockSuggestedDelayNSEi(i32 noundef %0) local_unnamed_addr #2 {
  %2 = load atomic i64, ptr @_ZN4absl13base_internalL10delay_randE.0 monotonic, align 8
  %3 = mul i64 %2, 25214903917
  %4 = add i64 %3, 11
  store atomic i64 %4, ptr @_ZN4absl13base_internalL10delay_randE.0 monotonic, align 8
  %spec.store.select = tail call i32 @llvm.umin.i32(i32 %0, i32 32)
  %5 = lshr i32 %spec.store.select, 3
  %6 = shl nuw nsw i32 131072, %5
  %7 = add nsw i32 %6, -1
  %8 = trunc i64 %4 to i32
  %9 = and i32 %7, %8
  %10 = or i32 %9, %6
  ret i32 %10
}